target datalayout = "e-m:e-p270:32:32-p271:32:32-p272:64:64-i64:64-i128:128-f80:128-n8:16:32:64-S128"
target triple = "x86_64-pc-linux-gnu"

%struct.MOVContext = type { ptr, ptr, i32, i64, i32, i32, i32, i32, i32, i32, ptr, i32, ptr, ptr, i32, %struct.MOVFragment, ptr, i32, i32, i32, ptr, i32, i32, i32, i32, i32, i32, i32, i64, i32, i32, ptr, i32, i32, i32, i32, i32, %struct.MOVFragmentIndex, i32, i32, [20 x i8], [20 x i8], ptr, i32, ptr, i32, ptr, i32, ptr, i32, ptr, ptr, i32, i32, [3 x [3 x i32]], i32, i32, i32, i32, i32, ptr, i32, ptr, i32, i32, i64, i32 }
%struct.MOVFragment = type { i32, i32, i64, i64, i64, i32, i32, i32, i32 }
%struct.MOVFragmentIndex = type { i32, i32, i32, i32, ptr }
%struct.AVIOContext = type { ptr, ptr, i32, ptr, ptr, ptr, ptr, ptr, ptr, i64, i32, i32, i32, i32, i32, i64, ptr, ptr, ptr, ptr, i32, i32, ptr, ptr, ptr, i32, ptr, i64, i64 }
%struct.MOVStreamContext = type { ptr, i32, i32, i32, i32, i32, i32, ptr, i32, i32, ptr, i32, i32, ptr, i32, ptr, i32, i32, ptr, i32, ptr, i32, i32, i32, ptr, ptr, i32, i32, i32, i32, i32, i32, ptr, i32, i32, ptr, i32, i64, i64, i32, i64, ptr, ptr, i32, i32, i32, i32, i16, i32, ptr, i32, i32, i32, i32, i32, i32, i32, i32, i32, [256 x i32], i32, i64, i32, i8, i64, i32, i32, ptr, i32, ptr, ptr, i32, ptr, i32, ptr, i32, i32, i32, i64, ptr, ptr, i32, i32, i32, ptr, ptr, i64, ptr, i64, ptr, i64, ptr, i64, ptr, i64, i32, i32, %struct.anon, ptr, i32 }
%struct.anon = type { ptr, ptr, i32, ptr, ptr }
%struct.MOVEncryptionIndex = type { i32, ptr, ptr, i64, i8, ptr, i64 }

@.str.259 = private unnamed_addr constant [50 x i8] c"Multiple auxiliary info chunks are not supported\0A\00", align 1
@.str.260 = private unnamed_addr constant [83 x i8] c"Failed to seek for auxiliary info, will only parse senc atoms for encryption info\0A\00", align 1
@.str.261 = private unnamed_addr constant [38 x i8] c"Hit EOF while reading auxiliary info\0A\00", align 1

; Function Attrs: alwaysinline nounwind uwtable
define internal i64 @avio_tell(ptr noundef %0) #5 {
  %2 = alloca ptr, align 8
  store ptr %0, ptr %2, align 8, !tbaa !9
  %3 = load ptr, ptr %2, align 8, !tbaa !9
  %4 = call i64 @avio_seek(ptr noundef %3, i64 noundef 0, i32 noundef 1)
  ret i64 %4
}

; Function Attrs: nounwind uwtable
define internal i32 @mov_parse_auxiliary_info(ptr noundef %0, ptr noundef %1, ptr noundef %2, ptr noundef %3) #0 {
  %5 = alloca i32, align 4
  %6 = alloca ptr, align 8
  %7 = alloca ptr, align 8
  %8 = alloca ptr, align 8
  %9 = alloca ptr, align 8
  %10 = alloca ptr, align 8
  %11 = alloca ptr, align 8
  %12 = alloca i64, align 8
  %13 = alloca i64, align 8
  %14 = alloca i64, align 8
  %15 = alloca i64, align 8
  %16 = alloca i32, align 4
  %17 = alloca i32, align 4
  %18 = alloca i32, align 4
  %19 = alloca i32, align 4
  store ptr %0, ptr %6, align 8, !tbaa !4
  store ptr %1, ptr %7, align 8, !tbaa !51
  store ptr %2, ptr %8, align 8, !tbaa !9
  store ptr %3, ptr %9, align 8, !tbaa !485
  call void @llvm.lifetime.start.p0(i64 8, ptr %10) #14
  call void @llvm.lifetime.start.p0(i64 8, ptr %11) #14
  call void @llvm.lifetime.start.p0(i64 8, ptr %12) #14
  call void @llvm.lifetime.start.p0(i64 8, ptr %13) #14
  call void @llvm.lifetime.start.p0(i64 8, ptr %14) #14
  call void @llvm.lifetime.start.p0(i64 8, ptr %15) #14
  call void @llvm.lifetime.start.p0(i64 4, ptr %16) #14
  store i32 0, ptr %16, align 4, !tbaa !11
  call void @llvm.lifetime.start.p0(i64 4, ptr %17) #14
  store i32 0, ptr %17, align 4, !tbaa !11
  %20 = load ptr, ptr %9, align 8, !tbaa !485
  %21 = getelementptr inbounds nuw %struct.MOVEncryptionIndex, ptr %20, i32 0, i32 0
  %22 = load i32, ptr %21, align 8, !tbaa !486
  %23 = icmp ne i32 %22, 0
  br i1 %23, label %24, label %25

24:                                               ; preds = %4
  store i32 0, ptr %5, align 4
  store i32 1, ptr %18, align 4
  br label %211

25:                                               ; preds = %4
  %26 = load ptr, ptr %9, align 8, !tbaa !485
  %27 = getelementptr inbounds nuw %struct.MOVEncryptionIndex, ptr %26, i32 0, i32 3
  %28 = load i64, ptr %27, align 8, !tbaa !494
  store i64 %28, ptr %13, align 8, !tbaa !59
  %29 = load ptr, ptr %9, align 8, !tbaa !485
  %30 = getelementptr inbounds nuw %struct.MOVEncryptionIndex, ptr %29, i32 0, i32 6
  %31 = load i64, ptr %30, align 8, !tbaa !501
  %32 = icmp ne i64 %31, 1
  br i1 %32, label %33, label %37

33:                                               ; preds = %25
  %34 = load ptr, ptr %6, align 8, !tbaa !4
  %35 = getelementptr inbounds nuw %struct.MOVContext, ptr %34, i32 0, i32 1
  %36 = load ptr, ptr %35, align 8, !tbaa !13
  call void (ptr, i32, ptr, ...) @av_log(ptr noundef %36, i32 noundef 16, ptr noundef @.str.259)
  store i32 -1163346256, ptr %5, align 4
  store i32 1, ptr %18, align 4
  br label %211

37:                                               ; preds = %25
  %38 = load i64, ptr %13, align 8, !tbaa !59
  %39 = icmp uge i64 %38, 268435455
  br i1 %39, label %40, label %41

40:                                               ; preds = %37
  store i32 -12, ptr %5, align 4
  store i32 1, ptr %18, align 4
  br label %211

41:                                               ; preds = %37
  %42 = load ptr, ptr %8, align 8, !tbaa !9
  %43 = call i64 @avio_tell(ptr noundef %42)
  store i64 %43, ptr %12, align 8, !tbaa !59
  %44 = load ptr, ptr %8, align 8, !tbaa !9
  %45 = getelementptr inbounds nuw %struct.AVIOContext, ptr %44, i32 0, i32 20
  %46 = load i32, ptr %45, align 8, !tbaa !148
  %47 = and i32 %46, 1
  %48 = icmp ne i32 %47, 0
  br i1 %48, label %49, label %63

49:                                               ; preds = %41
  %50 = load ptr, ptr %8, align 8, !tbaa !9
  %51 = load ptr, ptr %9, align 8, !tbaa !485
  %52 = getelementptr inbounds nuw %struct.MOVEncryptionIndex, ptr %51, i32 0, i32 5
  %53 = load ptr, ptr %52, align 8, !tbaa !502
  %54 = getelementptr inbounds i64, ptr %53, i64 0
  %55 = load i64, ptr %54, align 8, !tbaa !59
  %56 = call i64 @avio_seek(ptr noundef %50, i64 noundef %55, i32 noundef 0)
  %57 = load ptr, ptr %9, align 8, !tbaa !485
  %58 = getelementptr inbounds nuw %struct.MOVEncryptionIndex, ptr %57, i32 0, i32 5
  %59 = load ptr, ptr %58, align 8, !tbaa !502
  %60 = getelementptr inbounds i64, ptr %59, i64 0
  %61 = load i64, ptr %60, align 8, !tbaa !59
  %62 = icmp ne i64 %56, %61
  br i1 %62, label %63, label %67

63:                                               ; preds = %49, %41
  %64 = load ptr, ptr %6, align 8, !tbaa !4
  %65 = getelementptr inbounds nuw %struct.MOVContext, ptr %64, i32 0, i32 1
  %66 = load ptr, ptr %65, align 8, !tbaa !13
  call void (ptr, i32, ptr, ...) @av_log(ptr noundef %66, i32 noundef 32, ptr noundef @.str.260)
  br label %185

67:                                               ; preds = %49
  store i64 0, ptr %15, align 8, !tbaa !59
  br label %68

68:                                               ; preds = %167, %67
  %69 = load i64, ptr %15, align 8, !tbaa !59
  %70 = load i64, ptr %13, align 8, !tbaa !59
  %71 = icmp ult i64 %69, %70
  br i1 %71, label %72, label %78

72:                                               ; preds = %68
  %73 = load ptr, ptr %8, align 8, !tbaa !9
  %74 = getelementptr inbounds nuw %struct.AVIOContext, ptr %73, i32 0, i32 10
  %75 = load i32, ptr %74, align 8, !tbaa !53
  %76 = icmp ne i32 %75, 0
  %77 = xor i1 %76, true
  br label %78

78:                                               ; preds = %72, %68
  %79 = phi i1 [ false, %68 ], [ %77, %72 ]
  br i1 %79, label %80, label %170

80:                                               ; preds = %78
  call void @llvm.lifetime.start.p0(i64 4, ptr %19) #14
  %81 = load i64, ptr %15, align 8, !tbaa !59
  %82 = add i64 %81, 1
  %83 = icmp ugt i64 %82, 1048576
  br i1 %83, label %84, label %87

84:                                               ; preds = %80
  %85 = load i64, ptr %15, align 8, !tbaa !59
  %86 = add i64 %85, 1
  br label %88

87:                                               ; preds = %80
  br label %88

88:                                               ; preds = %87, %84
  %89 = phi i64 [ %86, %84 ], [ 1048576, %87 ]
  %90 = load i64, ptr %13, align 8, !tbaa !59
  %91 = icmp ugt i64 %89, %90
  br i1 %91, label %92, label %94

92:                                               ; preds = %88
  %93 = load i64, ptr %13, align 8, !tbaa !59
  br label %104

94:                                               ; preds = %88
  %95 = load i64, ptr %15, align 8, !tbaa !59
  %96 = add i64 %95, 1
  %97 = icmp ugt i64 %96, 1048576
  br i1 %97, label %98, label %101

98:                                               ; preds = %94
  %99 = load i64, ptr %15, align 8, !tbaa !59
  %100 = add i64 %99, 1
  br label %102

101:                                              ; preds = %94
  br label %102

102:                                              ; preds = %101, %98
  %103 = phi i64 [ %100, %98 ], [ 1048576, %101 ]
  br label %104

104:                                              ; preds = %102, %92
  %105 = phi i64 [ %93, %92 ], [ %103, %102 ]
  %106 = trunc i64 %105 to i32
  store i32 %106, ptr %19, align 4, !tbaa !11
  %107 = load ptr, ptr %9, align 8, !tbaa !485
  %108 = getelementptr inbounds nuw %struct.MOVEncryptionIndex, ptr %107, i32 0, i32 1
  %109 = load ptr, ptr %108, align 8, !tbaa !489
  %110 = load i32, ptr %19, align 4, !tbaa !11
  %111 = zext i32 %110 to i64
  %112 = mul i64 %111, 8
  %113 = call ptr @av_fast_realloc(ptr noundef %109, ptr noundef %17, i64 noundef %112)
  store ptr %113, ptr %11, align 8, !tbaa !490
  %114 = load ptr, ptr %11, align 8, !tbaa !490
  %115 = icmp ne ptr %114, null
  br i1 %115, label %117, label %116

116:                                              ; preds = %104
  store i32 -12, ptr %16, align 4, !tbaa !11
  store i32 2, ptr %18, align 4
  br label %164

117:                                              ; preds = %104
  %118 = load ptr, ptr %11, align 8, !tbaa !490
  %119 = load ptr, ptr %9, align 8, !tbaa !485
  %120 = getelementptr inbounds nuw %struct.MOVEncryptionIndex, ptr %119, i32 0, i32 1
  store ptr %118, ptr %120, align 8, !tbaa !489
  %121 = load ptr, ptr %9, align 8, !tbaa !485
  %122 = getelementptr inbounds nuw %struct.MOVEncryptionIndex, ptr %121, i32 0, i32 1
  %123 = load ptr, ptr %122, align 8, !tbaa !489
  %124 = load i64, ptr %15, align 8, !tbaa !59
  %125 = getelementptr inbounds nuw ptr, ptr %123, i64 %124
  store ptr %125, ptr %10, align 8, !tbaa !490
  %126 = load ptr, ptr %9, align 8, !tbaa !485
  %127 = getelementptr inbounds nuw %struct.MOVEncryptionIndex, ptr %126, i32 0, i32 4
  %128 = load i8, ptr %127, align 8, !tbaa !499
  %129 = zext i8 %128 to i32
  %130 = icmp ne i32 %129, 0
  br i1 %130, label %131, label %136

131:                                              ; preds = %117
  %132 = load ptr, ptr %9, align 8, !tbaa !485
  %133 = getelementptr inbounds nuw %struct.MOVEncryptionIndex, ptr %132, i32 0, i32 4
  %134 = load i8, ptr %133, align 8, !tbaa !499
  %135 = zext i8 %134 to i32
  br label %144

136:                                              ; preds = %117
  %137 = load ptr, ptr %9, align 8, !tbaa !485
  %138 = getelementptr inbounds nuw %struct.MOVEncryptionIndex, ptr %137, i32 0, i32 2
  %139 = load ptr, ptr %138, align 8, !tbaa !500
  %140 = load i64, ptr %15, align 8, !tbaa !59
  %141 = getelementptr inbounds nuw i8, ptr %139, i64 %140
  %142 = load i8, ptr %141, align 1, !tbaa !55
  %143 = zext i8 %142 to i32
  br label %144

144:                                              ; preds = %136, %131
  %145 = phi i32 [ %135, %131 ], [ %143, %136 ]
  %146 = sext i32 %145 to i64
  store i64 %146, ptr %14, align 8, !tbaa !59
  %147 = load ptr, ptr %6, align 8, !tbaa !4
  %148 = load ptr, ptr %8, align 8, !tbaa !9
  %149 = load ptr, ptr %7, align 8, !tbaa !51
  %150 = load ptr, ptr %10, align 8, !tbaa !490
  %151 = load i64, ptr %14, align 8, !tbaa !59
  %152 = load ptr, ptr %7, align 8, !tbaa !51
  %153 = getelementptr inbounds nuw %struct.MOVStreamContext, ptr %152, i32 0, i32 97
  %154 = getelementptr inbounds nuw %struct.anon, ptr %153, i32 0, i32 2
  %155 = load i32, ptr %154, align 8, !tbaa !522
  %156 = zext i32 %155 to i64
  %157 = icmp ugt i64 %151, %156
  %158 = zext i1 %157 to i32
  %159 = call i32 @mov_read_sample_encryption_info(ptr noundef %147, ptr noundef %148, ptr noundef %149, ptr noundef %150, i32 noundef %158)
  store i32 %159, ptr %16, align 4, !tbaa !11
  %160 = load i32, ptr %16, align 4, !tbaa !11
  %161 = icmp slt i32 %160, 0
  br i1 %161, label %162, label %163

162:                                              ; preds = %144
  store i32 2, ptr %18, align 4
  br label %164

163:                                              ; preds = %144
  store i32 0, ptr %18, align 4
  br label %164

164:                                              ; preds = %162, %116, %163
  call void @llvm.lifetime.end.p0(i64 4, ptr %19) #14
  %165 = load i32, ptr %18, align 4
  switch i32 %165, label %211 [
    i32 0, label %166
    i32 2, label %185
  ]

166:                                              ; preds = %164
  br label %167

167:                                              ; preds = %166
  %168 = load i64, ptr %15, align 8, !tbaa !59
  %169 = add i64 %168, 1
  store i64 %169, ptr %15, align 8, !tbaa !59
  br label %68, !llvm.loop !769

170:                                              ; preds = %78
  %171 = load ptr, ptr %8, align 8, !tbaa !9
  %172 = getelementptr inbounds nuw %struct.AVIOContext, ptr %171, i32 0, i32 10
  %173 = load i32, ptr %172, align 8, !tbaa !53
  %174 = icmp ne i32 %173, 0
  br i1 %174, label %175, label %179

175:                                              ; preds = %170
  %176 = load ptr, ptr %6, align 8, !tbaa !4
  %177 = getelementptr inbounds nuw %struct.MOVContext, ptr %176, i32 0, i32 1
  %178 = load ptr, ptr %177, align 8, !tbaa !13
  call void (ptr, i32, ptr, ...) @av_log(ptr noundef %178, i32 noundef 16, ptr noundef @.str.261)
  store i32 -1094995529, ptr %16, align 4, !tbaa !11
  br label %184

179:                                              ; preds = %170
  %180 = load i64, ptr %13, align 8, !tbaa !59
  %181 = trunc i64 %180 to i32
  %182 = load ptr, ptr %9, align 8, !tbaa !485
  %183 = getelementptr inbounds nuw %struct.MOVEncryptionIndex, ptr %182, i32 0, i32 0
  store i32 %181, ptr %183, align 8, !tbaa !486
  br label %184

184:                                              ; preds = %179, %175
  br label %185

185:                                              ; preds = %184, %164, %63
  %186 = load ptr, ptr %8, align 8, !tbaa !9
  %187 = load i64, ptr %12, align 8, !tbaa !59
  %188 = call i64 @avio_seek(ptr noundef %186, i64 noundef %187, i32 noundef 0)
  %189 = load i32, ptr %16, align 4, !tbaa !11
  %190 = icmp slt i32 %189, 0
  br i1 %190, label %191, label %209

191:                                              ; preds = %185
  br label %192

192:                                              ; preds = %203, %191
  %193 = load i64, ptr %15, align 8, !tbaa !59
  %194 = icmp ugt i64 %193, 0
  br i1 %194, label %195, label %206

195:                                              ; preds = %192
  %196 = load ptr, ptr %9, align 8, !tbaa !485
  %197 = getelementptr inbounds nuw %struct.MOVEncryptionIndex, ptr %196, i32 0, i32 1
  %198 = load ptr, ptr %197, align 8, !tbaa !489
  %199 = load i64, ptr %15, align 8, !tbaa !59
  %200 = sub i64 %199, 1
  %201 = getelementptr inbounds nuw ptr, ptr %198, i64 %200
  %202 = load ptr, ptr %201, align 8, !tbaa !491
  call void @av_encryption_info_free(ptr noundef %202)
  br label %203

203:                                              ; preds = %195
  %204 = load i64, ptr %15, align 8, !tbaa !59
  %205 = add i64 %204, -1
  store i64 %205, ptr %15, align 8, !tbaa !59
  br label %192, !llvm.loop !770

206:                                              ; preds = %192
  %207 = load ptr, ptr %9, align 8, !tbaa !485
  %208 = getelementptr inbounds nuw %struct.MOVEncryptionIndex, ptr %207, i32 0, i32 1
  call void @av_freep(ptr noundef %208)
  br label %209

209:                                              ; preds = %206, %185
  %210 = load i32, ptr %16, align 4, !tbaa !11
  store i32 %210, ptr %5, align 4
  store i32 1, ptr %18, align 4
  br label %211

211:                                              ; preds = %209, %164, %40, %33, %24
  call void @llvm.lifetime.end.p0(i64 4, ptr %17) #14
  call void @llvm.lifetime.end.p0(i64 4, ptr %16) #14
  call void @llvm.lifetime.end.p0(i64 8, ptr %15) #14
  call void @llvm.lifetime.end.p0(i64 8, ptr %14) #14
  call void @llvm.lifetime.end.p0(i64 8, ptr %13) #14
  call void @llvm.lifetime.end.p0(i64 8, ptr %12) #14
  call void @llvm.lifetime.end.p0(i64 8, ptr %11) #14
  call void @llvm.lifetime.end.p0(i64 8, ptr %10) #14
  %212 = load i32, ptr %5, align 4
  ret i32 %212
}