; Function Attrs: nounwind uwtable
define internal fastcc range(i32 -2147483648, 1) i32 @mov_parse_auxiliary_info(ptr noundef readonly captures(none) %0, ptr noundef readonly captures(none) %1, ptr noundef %2, ptr noundef %3) unnamed_addr #0 {
  %5 = alloca i32, align 4
  call void @llvm.lifetime.start.p0(i64 4, ptr nonnull %5) #16
  store i32 0, ptr %5, align 4, !tbaa !83
  %6 = load i32, ptr %3, align 8, !tbaa !351
  %.not = icmp eq i32 %6, 0
  br i1 %.not, label %7, label %70

7:                                                ; preds = %4
  %8 = getelementptr inbounds nuw i8, ptr %3, i64 24
  %9 = load i64, ptr %8, align 8, !tbaa !348
  %10 = getelementptr inbounds nuw i8, ptr %3, i64 48
  %11 = load i64, ptr %10, align 8, !tbaa !352
  %.not64 = icmp eq i64 %11, 1
  br i1 %.not64, label %15, label %12

12:                                               ; preds = %7
  %13 = getelementptr inbounds nuw i8, ptr %0, i64 8
  %14 = load ptr, ptr %13, align 8, !tbaa !4
  tail call void (ptr, i32, ptr, ...) @av_log(ptr noundef %14, i32 noundef 16, ptr noundef nonnull @.str.259) #16
  br label %70

15:                                               ; preds = %7
  %16 = icmp ugt i64 %9, 268435454
  br i1 %16, label %70, label %17

17:                                               ; preds = %15
  %18 = tail call i64 @avio_seek(ptr noundef %2, i64 noundef 0, i32 noundef 1) #16
  %19 = getelementptr inbounds nuw i8, ptr %2, i64 144
  %20 = load i32, ptr %19, align 8, !tbaa !137
  %21 = and i32 %20, 1
  %.not65 = icmp eq i32 %21, 0
  br i1 %.not65, label %34, label %22

22:                                               ; preds = %17
  %23 = getelementptr inbounds nuw i8, ptr %3, i64 40
  %24 = load ptr, ptr %23, align 8, !tbaa !574
  %25 = load i64, ptr %24, align 8, !tbaa !176
  %26 = tail call i64 @avio_seek(ptr noundef nonnull %2, i64 noundef %25, i32 noundef 0) #16
  %27 = load ptr, ptr %23, align 8, !tbaa !574
  %28 = load i64, ptr %27, align 8, !tbaa !176
  %.not66 = icmp eq i64 %26, %28
  br i1 %.not66, label %.preheader, label %34

.preheader:                                       ; preds = %22
  %29 = getelementptr inbounds nuw i8, ptr %2, i64 80
  %30 = getelementptr inbounds nuw i8, ptr %3, i64 8
  %31 = getelementptr inbounds nuw i8, ptr %3, i64 32
  %32 = getelementptr inbounds nuw i8, ptr %3, i64 16
  %33 = getelementptr inbounds nuw i8, ptr %1, i64 1616
  br label %37

34:                                               ; preds = %22, %17
  %35 = getelementptr inbounds nuw i8, ptr %0, i64 8
  %36 = load ptr, ptr %35, align 8, !tbaa !4
  tail call void (ptr, i32, ptr, ...) @av_log(ptr noundef %36, i32 noundef 32, ptr noundef nonnull @.str.260) #16
  br label %.thread78

37:                                               ; preds = %.preheader, %52
  %.156 = phi i64 [ %40, %52 ], [ 0, %.preheader ]
  %exitcond.not = icmp eq i64 %.156, %9
  %.pre = load i32, ptr %29, align 8, !tbaa !47
  %.not68 = icmp eq i32 %.pre, 0
  br i1 %exitcond.not, label %.critedge, label %38

38:                                               ; preds = %37
  br i1 %.not68, label %39, label %.critedge.thread

39:                                               ; preds = %38
  %40 = add nuw i64 %.156, 1
  %41 = call i64 @llvm.umax.i64(i64 %40, i64 1048576)
  %. = call i64 @llvm.umin.i64(i64 %41, i64 %9)
  %42 = load ptr, ptr %30, align 8, !tbaa !353
  %43 = shl nuw nsw i64 %., 3
  %44 = call ptr @av_fast_realloc(ptr noundef %42, ptr noundef nonnull %5, i64 noundef %43) #16
  %.not69 = icmp eq ptr %44, null
  br i1 %.not69, label %.thread, label %45

45:                                               ; preds = %39
  store ptr %44, ptr %30, align 8, !tbaa !353
  %46 = getelementptr inbounds nuw ptr, ptr %44, i64 %.156
  %47 = load i8, ptr %31, align 8, !tbaa !572
  %.not70 = icmp eq i8 %47, 0
  br i1 %.not70, label %48, label %52

48:                                               ; preds = %45
  %49 = load ptr, ptr %32, align 8, !tbaa !573
  %50 = getelementptr inbounds nuw i8, ptr %49, i64 %.156
  %51 = load i8, ptr %50, align 1, !tbaa !82
  br label %52

52:                                               ; preds = %45, %48
  %.in = phi i8 [ %51, %48 ], [ %47, %45 ]
  %53 = load i32, ptr %33, align 8, !tbaa !589
  %54 = zext i8 %.in to i32
  %55 = icmp ult i32 %53, %54
  %56 = zext i1 %55 to i32
  %57 = call fastcc i32 @mov_read_sample_encryption_info(ptr noundef %0, ptr noundef nonnull %2, ptr noundef %1, ptr noundef nonnull %46, i32 noundef %56)
  %58 = icmp slt i32 %57, 0
  br i1 %58, label %.thread, label %37, !llvm.loop !759

.critedge:                                        ; preds = %37
  br i1 %.not68, label %61, label %.critedge.thread

.critedge.thread:                                 ; preds = %38, %.critedge
  %.156.lcssa89 = phi i64 [ %9, %.critedge ], [ %.156, %38 ]
  %59 = getelementptr inbounds nuw i8, ptr %0, i64 8
  %60 = load ptr, ptr %59, align 8, !tbaa !4
  call void (ptr, i32, ptr, ...) @av_log(ptr noundef %60, i32 noundef 16, ptr noundef nonnull @.str.261) #16
  br label %.thread

61:                                               ; preds = %.critedge
  %62 = trunc nuw nsw i64 %9 to i32
  store i32 %62, ptr %3, align 8, !tbaa !351
  br label %.thread78

.thread78:                                        ; preds = %34, %61
  %63 = call i64 @avio_seek(ptr noundef nonnull %2, i64 noundef %18, i32 noundef 0) #16
  br label %70

.thread:                                          ; preds = %52, %39, %.critedge.thread
  %.15686 = phi i64 [ %.156.lcssa89, %.critedge.thread ], [ %.156, %39 ], [ %.156, %52 ]
  %.054 = phi i32 [ -1094995529, %.critedge.thread ], [ %57, %52 ], [ -12, %39 ]
  %64 = call i64 @avio_seek(ptr noundef nonnull %2, i64 noundef %18, i32 noundef 0) #16
  %.not7183 = icmp eq i64 %.15686, 0
  br i1 %.not7183, label %._crit_edge, label %.lr.ph

.lr.ph:                                           ; preds = %.thread, %.lr.ph
  %.25784 = phi i64 [ %69, %.lr.ph ], [ %.15686, %.thread ]
  %65 = load ptr, ptr %30, align 8, !tbaa !353
  %66 = getelementptr ptr, ptr %65, i64 %.25784
  %67 = getelementptr i8, ptr %66, i64 -8
  %68 = load ptr, ptr %67, align 8, !tbaa !354
  call void @av_encryption_info_free(ptr noundef %68) #16
  %69 = add i64 %.25784, -1
  %.not71 = icmp eq i64 %69, 0
  br i1 %.not71, label %._crit_edge, label %.lr.ph, !llvm.loop !760

._crit_edge:                                      ; preds = %.lr.ph, %.thread
  call void @av_freep(ptr noundef nonnull %30) #16
  br label %70

70:                                               ; preds = %.thread78, %._crit_edge, %15, %4, %12
  %.0 = phi i32 [ -1163346256, %12 ], [ 0, %4 ], [ -12, %15 ], [ %.054, %._crit_edge ], [ 0, %.thread78 ]
  call void @llvm.lifetime.end.p0(i64 4, ptr nonnull %5) #16
  ret i32 %.0
}